target datalayout = "e-m:e-p270:32:32-p271:32:32-p272:64:64-i64:64-i128:128-f80:128-n8:16:32:64-S128"
target triple = "x86_64-pc-linux-gnu"

%"class.std::_Function_base" = type { %"union.std::_Any_data", ptr }
%"union.std::_Any_data" = type { %"union.std::_Nocopy_types" }
%"union.std::_Nocopy_types" = type { { i64, i64 } }
%"class.std::basic_ostream" = type { ptr, %"class.std::basic_ios" }
%"class.std::basic_ios" = type { %"class.std::ios_base", ptr, i8, i8, ptr, ptr, ptr, ptr }
%"class.std::ios_base" = type { ptr, i64, i64, i32, i32, i32, ptr, %"struct.std::ios_base::_Words", [8 x %"struct.std::ios_base::_Words"], i32, ptr, %"class.std::locale" }
%"struct.std::ios_base::_Words" = type { ptr, i64 }
%"class.std::locale" = type { ptr }
%"class.std::__cxx11::basic_string" = type { %"struct.std::__cxx11::basic_string<char>::_Alloc_hider", i64, %union.anon }
%"struct.std::__cxx11::basic_string<char>::_Alloc_hider" = type { ptr }
%union.anon = type { i64, [8 x i8] }
%"class.std::function" = type { %"class.std::_Function_base", ptr }
%"struct.nix::ProcessOptions" = type { %"class.std::__cxx11::basic_string", i8, i8, i8, i32 }
%class.anon.15 = type { ptr, ptr }

@_ZN3nix6loggerE = external global ptr, align 8
@_ZTISt9exception = external constant ptr
@_ZTIN3nix8SysErrorE = linkonce_odr constant { ptr, ptr, ptr } { ptr getelementptr inbounds (ptr, ptr @_ZTVN10__cxxabiv120__si_class_type_infoE, i64 2), ptr @_ZTSN3nix8SysErrorE, ptr @_ZTIN3nix11SystemErrorE }, comdat, align 8
@.str.37 = private unnamed_addr constant [21 x i8] c"setting death signal\00", align 1
@_ZSt4cerr = external global %"class.std::basic_ostream", align 8
@.str.38 = private unnamed_addr constant [2 x i8] c"\0A\00", align 1

; Function Attrs: mustprogress nounwind uwtable
define linkonce_odr noundef zeroext i1 @_ZNKSt14_Function_base8_M_emptyEv(ptr noundef nonnull align 8 dereferenceable(24) %0) #2 comdat align 2 {
  %2 = alloca ptr, align 8
  store ptr %0, ptr %2, align 8
  %3 = load ptr, ptr %2, align 8
  %4 = getelementptr inbounds %"class.std::_Function_base", ptr %3, i32 0, i32 1
  %5 = load ptr, ptr %4, align 8
  %6 = icmp ne ptr %5, null
  %7 = xor i1 %6, true
  ret i1 %7
}

; Function Attrs: mustprogress uwtable
define linkonce_odr void @_ZNKSt8functionIFvvEEclEv(ptr noundef nonnull align 8 dereferenceable(32) %0) #5 comdat align 2 {
  %2 = alloca ptr, align 8
  store ptr %0, ptr %2, align 8
  %3 = load ptr, ptr %2, align 8
  %4 = call noundef zeroext i1 @_ZNKSt14_Function_base8_M_emptyEv(ptr noundef nonnull align 8 dereferenceable(24) %3)
  br i1 %4, label %5, label %6

5:                                                ; preds = %1
  call void @_ZSt25__throw_bad_function_callv() #22
  unreachable

6:                                                ; preds = %1
  %7 = getelementptr inbounds %"class.std::function", ptr %3, i32 0, i32 1
  %8 = load ptr, ptr %7, align 8
  %9 = getelementptr inbounds %"class.std::_Function_base", ptr %3, i32 0, i32 0
  call void %8(ptr noundef nonnull align 8 dereferenceable(16) %9)
  ret void
}

; Function Attrs: mustprogress uwtable
define linkonce_odr void @_ZN3nix8SysErrorC2IJA21_cEEEDpRKT_(ptr noundef nonnull align 8 dereferenceable(380) %0, ptr noundef nonnull align 1 dereferenceable(21) %1) unnamed_addr #5 comdat align 2 {
  %3 = alloca ptr, align 8
  %4 = alloca ptr, align 8
  store ptr %0, ptr %3, align 8
  store ptr %1, ptr %4, align 8
  %5 = load ptr, ptr %3, align 8
  %6 = call ptr @__errno_location() #23
  %7 = load i32, ptr %6, align 4
  %8 = load ptr, ptr %4, align 8
  call void @_ZN3nix8SysErrorC2IJA21_cEEEiDpRKT_(ptr noundef nonnull align 8 dereferenceable(380) %5, i32 noundef %7, ptr noundef nonnull align 1 dereferenceable(21) %8)
  ret void
}

; Function Attrs: mustprogress uwtable
define internal void @"_ZZN3nix12startProcessESt8functionIFvvEERKNS_14ProcessOptionsEENK3$_0clEv"(ptr noundef nonnull align 8 dereferenceable(16) %0) #5 align 2 personality ptr @__gxx_personality_v0 {
  %2 = alloca ptr, align 8
  %3 = alloca ptr, align 8
  %4 = alloca i32, align 4
  %5 = alloca ptr, align 8
  store ptr %0, ptr %2, align 8
  %6 = load ptr, ptr %2, align 8
  %7 = getelementptr inbounds %class.anon.15, ptr %6, i32 0, i32 0
  %8 = load ptr, ptr %7, align 8
  %9 = getelementptr inbounds %"struct.nix::ProcessOptions", ptr %8, i32 0, i32 3
  %10 = load i8, ptr %9, align 2
  %11 = trunc i8 %10 to i1
  br i1 %11, label %14, label %12

12:                                               ; preds = %1
  %13 = call noundef ptr @_ZN3nix16makeSimpleLoggerEb(i1 noundef zeroext true)
  store ptr %13, ptr @_ZN3nix6loggerE, align 8
  br label %14

14:                                               ; preds = %12, %1
  %15 = getelementptr inbounds %class.anon.15, ptr %6, i32 0, i32 0
  %16 = load ptr, ptr %15, align 8
  %17 = getelementptr inbounds %"struct.nix::ProcessOptions", ptr %16, i32 0, i32 1
  %18 = load i8, ptr %17, align 8
  %19 = trunc i8 %18 to i1
  br i1 %19, label %20, label %58

20:                                               ; preds = %14
  %21 = call i32 (i32, ...) @prctl(i32 noundef 1, i32 noundef 9) #1
  %22 = icmp eq i32 %21, -1
  br i1 %22, label %23, label %58

23:                                               ; preds = %20
  %24 = call ptr @__cxa_allocate_exception(i64 384) #1
  invoke void @_ZN3nix8SysErrorC2IJA21_cEEEDpRKT_(ptr noundef nonnull align 8 dereferenceable(380) %24, ptr noundef nonnull align 1 dereferenceable(21) @.str.37)
          to label %25 unwind label %26

25:                                               ; preds = %23
  invoke void @__cxa_throw(ptr %24, ptr @_ZTIN3nix8SysErrorE, ptr @_ZN3nix8SysErrorD2Ev) #22
          to label %92 unwind label %30

26:                                               ; preds = %23
  %27 = landingpad { ptr, i32 }
          catch ptr @_ZTISt9exception
          catch ptr null
  %28 = extractvalue { ptr, i32 } %27, 0
  store ptr %28, ptr %3, align 8
  %29 = extractvalue { ptr, i32 } %27, 1
  store i32 %29, ptr %4, align 4
  call void @__cxa_free_exception(ptr %24) #1
  br label %34

30:                                               ; preds = %58, %25
  %31 = landingpad { ptr, i32 }
          catch ptr @_ZTISt9exception
          catch ptr null
  %32 = extractvalue { ptr, i32 } %31, 0
  store ptr %32, ptr %3, align 8
  %33 = extractvalue { ptr, i32 } %31, 1
  store i32 %33, ptr %4, align 4
  br label %34

34:                                               ; preds = %30, %26
  %35 = load i32, ptr %4, align 4
  %36 = call i32 @llvm.eh.typeid.for(ptr @_ZTISt9exception) #1
  %37 = icmp eq i32 %35, %36
  br i1 %37, label %38, label %55

38:                                               ; preds = %34
  %39 = load ptr, ptr %3, align 8
  %40 = call ptr @__cxa_begin_catch(ptr %39) #1
  store ptr %40, ptr %5, align 8
  %41 = getelementptr inbounds %class.anon.15, ptr %6, i32 0, i32 0
  %42 = load ptr, ptr %41, align 8
  %43 = getelementptr inbounds %"struct.nix::ProcessOptions", ptr %42, i32 0, i32 0
  %44 = invoke noundef nonnull align 8 dereferenceable(8) ptr @_ZStlsIcSt11char_traitsIcESaIcEERSt13basic_ostreamIT_T0_ES7_RKNSt7__cxx1112basic_stringIS4_S5_T1_EE(ptr noundef nonnull align 8 dereferenceable(8) @_ZSt4cerr, ptr noundef nonnull align 8 dereferenceable(32) %43)
          to label %45 unwind label %62

45:                                               ; preds = %38
  %46 = load ptr, ptr %5, align 8
  %47 = load ptr, ptr %46, align 8
  %48 = getelementptr inbounds ptr, ptr %47, i64 2
  %49 = load ptr, ptr %48, align 8
  %50 = call noundef ptr %49(ptr noundef nonnull align 8 dereferenceable(8) %46) #1
  %51 = invoke noundef nonnull align 8 dereferenceable(8) ptr @_ZStlsISt11char_traitsIcEERSt13basic_ostreamIcT_ES5_PKc(ptr noundef nonnull align 8 dereferenceable(8) %44, ptr noundef %50)
          to label %52 unwind label %62

52:                                               ; preds = %45
  %53 = invoke noundef nonnull align 8 dereferenceable(8) ptr @_ZStlsISt11char_traitsIcEERSt13basic_ostreamIcT_ES5_PKc(ptr noundef nonnull align 8 dereferenceable(8) %51, ptr noundef @.str.38)
          to label %54 unwind label %62

54:                                               ; preds = %52
  br label %70

55:                                               ; preds = %34
  %56 = load ptr, ptr %3, align 8
  %57 = call ptr @__cxa_begin_catch(ptr %56) #1
  call void @__cxa_end_catch()
  br label %71

58:                                               ; preds = %20, %14
  %59 = getelementptr inbounds %class.anon.15, ptr %6, i32 0, i32 1
  %60 = load ptr, ptr %59, align 8
  invoke void @_ZNKSt8functionIFvvEEclEv(ptr noundef nonnull align 8 dereferenceable(32) %60)
          to label %61 unwind label %30

61:                                               ; preds = %58
  br label %71

62:                                               ; preds = %52, %45, %38
  %63 = landingpad { ptr, i32 }
          catch ptr null
  %64 = extractvalue { ptr, i32 } %63, 0
  store ptr %64, ptr %3, align 8
  %65 = extractvalue { ptr, i32 } %63, 1
  store i32 %65, ptr %4, align 4
  br label %66

66:                                               ; preds = %62
  %67 = load ptr, ptr %3, align 8
  %68 = call ptr @__cxa_begin_catch(ptr %67) #1
  invoke void @__cxa_end_catch()
          to label %69 unwind label %78

69:                                               ; preds = %66
  br label %70

70:                                               ; preds = %69, %54
  call void @__cxa_end_catch()
  br label %71

71:                                               ; preds = %70, %61, %55
  %72 = getelementptr inbounds %class.anon.15, ptr %6, i32 0, i32 0
  %73 = load ptr, ptr %72, align 8
  %74 = getelementptr inbounds %"struct.nix::ProcessOptions", ptr %73, i32 0, i32 2
  %75 = load i8, ptr %74, align 1
  %76 = trunc i8 %75 to i1
  br i1 %76, label %77, label %83

77:                                               ; preds = %71
  call void @exit(i32 noundef 1) #21
  unreachable

78:                                               ; preds = %66
  %79 = landingpad { ptr, i32 }
          cleanup
  %80 = extractvalue { ptr, i32 } %79, 0
  store ptr %80, ptr %3, align 8
  %81 = extractvalue { ptr, i32 } %79, 1
  store i32 %81, ptr %4, align 4
  invoke void @__cxa_end_catch()
          to label %82 unwind label %89

82:                                               ; preds = %78
  br label %84

83:                                               ; preds = %71
  call void @_exit(i32 noundef 1) #22
  unreachable

84:                                               ; preds = %82
  %85 = load ptr, ptr %3, align 8
  %86 = load i32, ptr %4, align 4
  %87 = insertvalue { ptr, i32 } poison, ptr %85, 0
  %88 = insertvalue { ptr, i32 } %87, i32 %86, 1
  resume { ptr, i32 } %88

89:                                               ; preds = %78
  %90 = landingpad { ptr, i32 }
          catch ptr null
  %91 = extractvalue { ptr, i32 } %90, 0
  call void @__clang_call_terminate(ptr %91) #21
  unreachable

92:                                               ; preds = %25
  unreachable
}

; Function Attrs: mustprogress nounwind uwtable
define linkonce_odr noundef ptr @_ZNKSt9_Any_data9_M_accessEv(ptr noundef nonnull align 8 dereferenceable(16) %0) #2 comdat align 2 {
  %2 = alloca ptr, align 8
  store ptr %0, ptr %2, align 8
  %3 = load ptr, ptr %2, align 8
  %4 = getelementptr inbounds [16 x i8], ptr %3, i64 0, i64 0
  ret ptr %4
}

; Function Attrs: mustprogress uwtable
define internal void @"_ZSt13__invoke_implIvRZN3nix12startProcessESt8functionIFvvEERKNS0_14ProcessOptionsEE3$_0JEET_St14__invoke_otherOT0_DpOT1_"(ptr noundef nonnull align 8 dereferenceable(16) %0) #5 {
  %2 = alloca ptr, align 8
  store ptr %0, ptr %2, align 8
  %3 = load ptr, ptr %2, align 8
  call void @"_ZZN3nix12startProcessESt8functionIFvvEERKNS_14ProcessOptionsEENK3$_0clEv"(ptr noundef nonnull align 8 dereferenceable(16) %3)
  ret void
}

; Function Attrs: mustprogress nounwind uwtable
define internal noundef nonnull align 8 dereferenceable(16) ptr @"_ZNKSt9_Any_data9_M_accessIZN3nix12startProcessESt8functionIFvvEERKNS1_14ProcessOptionsEE3$_0EERKT_v"(ptr noundef nonnull align 8 dereferenceable(16) %0) #2 align 2 {
  %2 = alloca ptr, align 8
  store ptr %0, ptr %2, align 8
  %3 = load ptr, ptr %2, align 8
  %4 = call noundef ptr @_ZNKSt9_Any_data9_M_accessEv(ptr noundef nonnull align 8 dereferenceable(16) %3) #1
  ret ptr %4
}

; Function Attrs: mustprogress uwtable
define internal void @"_ZSt10__invoke_rIvRZN3nix12startProcessESt8functionIFvvEERKNS0_14ProcessOptionsEE3$_0JEENSt9enable_ifIX16is_invocable_r_vIT_T0_DpT1_EESA_E4typeEOSB_DpOSC_"(ptr noundef nonnull align 8 dereferenceable(16) %0) #5 {
  %2 = alloca ptr, align 8
  store ptr %0, ptr %2, align 8
  %3 = load ptr, ptr %2, align 8
  call void @"_ZSt13__invoke_implIvRZN3nix12startProcessESt8functionIFvvEERKNS0_14ProcessOptionsEE3$_0JEET_St14__invoke_otherOT0_DpOT1_"(ptr noundef nonnull align 8 dereferenceable(16) %3)
  ret void
}

; Function Attrs: mustprogress nounwind uwtable
define internal noundef ptr @"_ZNSt14_Function_base13_Base_managerIZN3nix12startProcessESt8functionIFvvEERKNS1_14ProcessOptionsEE3$_0E14_M_get_pointerERKSt9_Any_data"(ptr noundef nonnull align 8 dereferenceable(16) %0) #2 align 2 {
  %2 = alloca ptr, align 8
  %3 = alloca ptr, align 8
  store ptr %0, ptr %2, align 8
  %4 = load ptr, ptr %2, align 8
  %5 = call noundef nonnull align 8 dereferenceable(16) ptr @"_ZNKSt9_Any_data9_M_accessIZN3nix12startProcessESt8functionIFvvEERKNS1_14ProcessOptionsEE3$_0EERKT_v"(ptr noundef nonnull align 8 dereferenceable(16) %4) #1
  store ptr %5, ptr %3, align 8
  %6 = load ptr, ptr %3, align 8
  ret ptr %6
}

; Function Attrs: mustprogress uwtable
define internal void @"_ZNSt17_Function_handlerIFvvEZN3nix12startProcessESt8functionIS0_ERKNS1_14ProcessOptionsEE3$_0E9_M_invokeERKSt9_Any_data"(ptr noundef nonnull align 8 dereferenceable(16) %0) #5 align 2 {
  %2 = alloca ptr, align 8
  store ptr %0, ptr %2, align 8
  %3 = load ptr, ptr %2, align 8
  %4 = call noundef ptr @"_ZNSt14_Function_base13_Base_managerIZN3nix12startProcessESt8functionIFvvEERKNS1_14ProcessOptionsEE3$_0E14_M_get_pointerERKSt9_Any_data"(ptr noundef nonnull align 8 dereferenceable(16) %3) #1
  call void @"_ZSt10__invoke_rIvRZN3nix12startProcessESt8functionIFvvEERKNS0_14ProcessOptionsEE3$_0JEENSt9enable_ifIX16is_invocable_r_vIT_T0_DpT1_EESA_E4typeEOSB_DpOSC_"(ptr noundef nonnull align 8 dereferenceable(16) %4)
  ret void
}