; Function Attrs: mustprogress noreturn uwtable
define internal void @"_ZNSt17_Function_handlerIFvvEZN3nix12startProcessESt8functionIS0_ERKNS1_14ProcessOptionsEE3$_0E9_M_invokeERKSt9_Any_data"(ptr nocapture noundef nonnull readonly align 8 dereferenceable(16) %0) #21 align 2 personality ptr @__gxx_personality_v0 {
  %2 = load ptr, ptr %0, align 8
  %3 = getelementptr inbounds i8, ptr %2, i64 34
  %4 = load i8, ptr %3, align 2
  %5 = and i8 %4, 1
  %.not.i.i.i = icmp eq i8 %5, 0
  br i1 %.not.i.i.i, label %6, label %8

6:                                                ; preds = %1
  %7 = tail call noundef ptr @_ZN3nix16makeSimpleLoggerEb(i1 noundef zeroext true)
  store ptr %7, ptr @_ZN3nix6loggerE, align 8
  %.pre.i.i.i = load ptr, ptr %0, align 8
  br label %8

8:                                                ; preds = %6, %1
  %9 = phi ptr [ %.pre.i.i.i, %6 ], [ %2, %1 ]
  %10 = getelementptr inbounds i8, ptr %9, i64 32
  %11 = load i8, ptr %10, align 8
  %12 = and i8 %11, 1
  %.not8.i.i.i = icmp eq i8 %12, 0
  br i1 %.not8.i.i.i, label %39, label %13

13:                                               ; preds = %8
  %14 = tail call i32 (i32, ...) @prctl(i32 noundef 1, i32 noundef 9) #32
  %15 = icmp eq i32 %14, -1
  br i1 %15, label %16, label %39

16:                                               ; preds = %13
  %17 = tail call ptr @__cxa_allocate_exception(i64 384) #32
  %18 = tail call ptr @__errno_location() #35
  %19 = load i32, ptr %18, align 4
  invoke void @_ZN3nix8SysErrorC2IJA21_cEEEiDpRKT_(ptr noundef nonnull align 8 dereferenceable(380) %17, i32 noundef %19, ptr noundef nonnull align 1 dereferenceable(21) @.str.37)
          to label %_ZN3nix8SysErrorC2IJA21_cEEEDpRKT_.exit.i.i.i unwind label %20

_ZN3nix8SysErrorC2IJA21_cEEEDpRKT_.exit.i.i.i:    ; preds = %16
  invoke void @__cxa_throw(ptr nonnull %17, ptr nonnull @_ZTIN3nix8SysErrorE, ptr nonnull @_ZN3nix8SysErrorD2Ev) #36
          to label %64 unwind label %22

20:                                               ; preds = %16
  %21 = landingpad { ptr, i32 }
          catch ptr @_ZTISt9exception
          catch ptr null
  tail call void @__cxa_free_exception(ptr %17) #32
  br label %24

22:                                               ; preds = %45, %44, %_ZN3nix8SysErrorC2IJA21_cEEEDpRKT_.exit.i.i.i
  %23 = landingpad { ptr, i32 }
          catch ptr @_ZTISt9exception
          catch ptr null
  br label %24

24:                                               ; preds = %22, %20
  %.pn.i.i.i = phi { ptr, i32 } [ %23, %22 ], [ %21, %20 ]
  %.0.i.i.i = extractvalue { ptr, i32 } %.pn.i.i.i, 0
  %.07.i.i.i = extractvalue { ptr, i32 } %.pn.i.i.i, 1
  %25 = tail call i32 @llvm.eh.typeid.for(ptr nonnull @_ZTISt9exception) #32
  %26 = icmp eq i32 %.07.i.i.i, %25
  %27 = tail call ptr @__cxa_begin_catch(ptr %.0.i.i.i) #32
  br i1 %26, label %28, label %_ZNKSt8functionIFvvEEclEv.exit.sink.split.i.i.i

28:                                               ; preds = %24
  %29 = load ptr, ptr %0, align 8
  %30 = invoke noundef nonnull align 8 dereferenceable(8) ptr @_ZStlsIcSt11char_traitsIcESaIcEERSt13basic_ostreamIT_T0_ES7_RKNSt7__cxx1112basic_stringIS4_S5_T1_EE(ptr noundef nonnull align 8 dereferenceable(8) @_ZSt4cerr, ptr noundef nonnull align 8 dereferenceable(32) %29)
          to label %31 unwind label %48

31:                                               ; preds = %28
  %32 = load ptr, ptr %27, align 8
  %33 = getelementptr inbounds i8, ptr %32, i64 16
  %34 = load ptr, ptr %33, align 8
  %35 = tail call noundef ptr %34(ptr noundef nonnull align 8 dereferenceable(8) %27) #32
  %36 = invoke noundef nonnull align 8 dereferenceable(8) ptr @_ZStlsISt11char_traitsIcEERSt13basic_ostreamIcT_ES5_PKc(ptr noundef nonnull align 8 dereferenceable(8) %30, ptr noundef %35)
          to label %37 unwind label %48

37:                                               ; preds = %31
  %38 = invoke noundef nonnull align 8 dereferenceable(8) ptr @_ZStlsISt11char_traitsIcEERSt13basic_ostreamIcT_ES5_PKc(ptr noundef nonnull align 8 dereferenceable(8) %36, ptr noundef nonnull @.str.38)
          to label %_ZNKSt8functionIFvvEEclEv.exit.sink.split.i.i.i unwind label %48

39:                                               ; preds = %13, %8
  %40 = getelementptr inbounds i8, ptr %0, i64 8
  %41 = load ptr, ptr %40, align 8
  %42 = getelementptr inbounds i8, ptr %41, i64 16
  %43 = load ptr, ptr %42, align 8
  %.not.i.i.i.i.i = icmp eq ptr %43, null
  br i1 %.not.i.i.i.i.i, label %44, label %45

44:                                               ; preds = %39
  invoke void @_ZSt25__throw_bad_function_callv() #36
          to label %.noexc.i.i.i unwind label %22

.noexc.i.i.i:                                     ; preds = %44
  unreachable

45:                                               ; preds = %39
  %46 = getelementptr inbounds i8, ptr %41, i64 24
  %47 = load ptr, ptr %46, align 8
  invoke void %47(ptr noundef nonnull align 8 dereferenceable(16) %41)
          to label %_ZNKSt8functionIFvvEEclEv.exit.i.i.i unwind label %22

48:                                               ; preds = %37, %31, %28
  %49 = landingpad { ptr, i32 }
          catch ptr null
  %50 = extractvalue { ptr, i32 } %49, 0
  %51 = tail call ptr @__cxa_begin_catch(ptr %50) #32
  invoke void @__cxa_end_catch()
          to label %_ZNKSt8functionIFvvEEclEv.exit.sink.split.i.i.i unwind label %57

_ZNKSt8functionIFvvEEclEv.exit.sink.split.i.i.i:  ; preds = %48, %37, %24
  tail call void @__cxa_end_catch()
  br label %_ZNKSt8functionIFvvEEclEv.exit.i.i.i

_ZNKSt8functionIFvvEEclEv.exit.i.i.i:             ; preds = %_ZNKSt8functionIFvvEEclEv.exit.sink.split.i.i.i, %45
  %52 = load ptr, ptr %0, align 8
  %53 = getelementptr inbounds i8, ptr %52, i64 33
  %54 = load i8, ptr %53, align 1
  %55 = and i8 %54, 1
  %.not10.i.i.i = icmp eq i8 %55, 0
  br i1 %.not10.i.i.i, label %59, label %56

56:                                               ; preds = %_ZNKSt8functionIFvvEEclEv.exit.i.i.i
  tail call void @exit(i32 noundef 1) #33
  unreachable

57:                                               ; preds = %48
  %58 = landingpad { ptr, i32 }
          cleanup
  invoke void @__cxa_end_catch()
          to label %60 unwind label %61

59:                                               ; preds = %_ZNKSt8functionIFvvEEclEv.exit.i.i.i
  tail call void @_exit(i32 noundef 1) #36
  unreachable

60:                                               ; preds = %57
  resume { ptr, i32 } %58

61:                                               ; preds = %57
  %62 = landingpad { ptr, i32 }
          catch ptr null
  %63 = extractvalue { ptr, i32 } %62, 0
  tail call void @__clang_call_terminate(ptr %63) #33
  unreachable

64:                                               ; preds = %_ZN3nix8SysErrorC2IJA21_cEEEDpRKT_.exit.i.i.i
  unreachable
}